; Function Attrs: alwaysinline norecurse nounwind uwtable
define internal void @_ZN8LightGBM8Metadata16CheckOrPartitionEiRKSt6vectorIiSaIiEE.omp_outlined(ptr noalias noundef readonly captures(none) %0, ptr noalias readnone captures(none) %1, ptr noundef nonnull readonly align 8 captures(none) dereferenceable(24) %2, ptr noundef readonly captures(none) %3, ptr noundef nonnull readonly align 8 captures(none) dereferenceable(24) %4) #21 {
  %6 = alloca i32, align 4
  %7 = alloca i32, align 4
  %8 = alloca i32, align 4
  %9 = alloca i32, align 4
  %10 = getelementptr inbounds nuw i8, ptr %2, i64 8
  %11 = load ptr, ptr %10, align 8, !tbaa !61
  %12 = load ptr, ptr %2, align 8, !tbaa !60
  %13 = ptrtoint ptr %11 to i64
  %14 = ptrtoint ptr %12 to i64
  %15 = sub i64 %13, %14
  %16 = lshr exact i64 %15, 2
  %17 = trunc i64 %16 to i32
  %18 = add nsw i32 %17, -1
  %19 = icmp sgt i32 %17, 0
  br i1 %19, label %20, label %42

20:                                               ; preds = %5
  call void @llvm.lifetime.start.p0(i64 4, ptr nonnull %6) #20
  store i32 0, ptr %6, align 4, !tbaa !59
  call void @llvm.lifetime.start.p0(i64 4, ptr nonnull %7) #20
  store i32 %18, ptr %7, align 4, !tbaa !59
  call void @llvm.lifetime.start.p0(i64 4, ptr nonnull %8) #20
  store i32 1, ptr %8, align 4, !tbaa !59
  call void @llvm.lifetime.start.p0(i64 4, ptr nonnull %9) #20
  store i32 0, ptr %9, align 4, !tbaa !59
  %21 = load i32, ptr %0, align 4, !tbaa !59
  call void @__kmpc_for_static_init_4(ptr nonnull @1, i32 %21, i32 33, ptr nonnull %9, ptr nonnull %6, ptr nonnull %7, ptr nonnull %8, i32 1, i32 512)
  %.promoted = load i32, ptr %7, align 4, !tbaa !59
  %.promoted20 = load i32, ptr %6, align 4, !tbaa !59
  %22 = call i32 @llvm.smin.i32(i32 %.promoted, i32 %18)
  store i32 %22, ptr %7, align 4, !tbaa !59
  %.not21 = icmp sgt i32 %.promoted20, %22
  br i1 %.not21, label %._crit_edge, label %.preheader.lr.ph

.preheader.lr.ph:                                 ; preds = %20
  %23 = load ptr, ptr %2, align 8, !tbaa !60
  %24 = load ptr, ptr %4, align 8, !tbaa !70
  %25 = getelementptr inbounds nuw i8, ptr %3, i64 72
  %26 = load ptr, ptr %25, align 8, !tbaa !70
  %27 = load i32, ptr %8, align 4, !tbaa !59
  %28 = sext i32 %.promoted20 to i64
  %29 = sext i32 %27 to i64
  br label %.preheader

.preheader:                                       ; preds = %.preheader.lr.ph, %39
  %indvars.iv = phi i64 [ %28, %.preheader.lr.ph ], [ %indvars.iv.next, %39 ]
  %30 = phi i32 [ %22, %.preheader.lr.ph ], [ %41, %39 ]
  %31 = sext i32 %30 to i64
  br label %32

32:                                               ; preds = %.preheader, %32
  %indvars.iv22 = phi i64 [ %indvars.iv, %.preheader ], [ %indvars.iv.next23, %32 ]
  %33 = getelementptr inbounds nuw i32, ptr %23, i64 %indvars.iv22
  %34 = load i32, ptr %33, align 4, !tbaa !59
  %35 = sext i32 %34 to i64
  %36 = getelementptr inbounds nuw float, ptr %24, i64 %35
  %37 = load float, ptr %36, align 4, !tbaa !68
  %38 = getelementptr inbounds nuw float, ptr %26, i64 %indvars.iv22
  store float %37, ptr %38, align 4, !tbaa !68
  %indvars.iv.next23 = add nsw i64 %indvars.iv22, 1
  %.not18.not = icmp slt i64 %indvars.iv22, %31
  br i1 %.not18.not, label %32, label %39

39:                                               ; preds = %32
  %indvars.iv.next = add i64 %indvars.iv, %29
  %indvars = trunc i64 %indvars.iv.next to i32
  store i32 %indvars, ptr %6, align 4, !tbaa !59
  %40 = add nsw i32 %27, %30
  %41 = call i32 @llvm.smin.i32(i32 %40, i32 %18)
  store i32 %41, ptr %7, align 4, !tbaa !59
  %.not = icmp slt i32 %41, %indvars
  br i1 %.not, label %._crit_edge, label %.preheader

._crit_edge:                                      ; preds = %39, %20
  call void @__kmpc_for_static_fini(ptr nonnull @1, i32 %21)
  call void @llvm.lifetime.end.p0(i64 4, ptr nonnull %9) #20
  call void @llvm.lifetime.end.p0(i64 4, ptr nonnull %8) #20
  call void @llvm.lifetime.end.p0(i64 4, ptr nonnull %7) #20
  call void @llvm.lifetime.end.p0(i64 4, ptr nonnull %6) #20
  br label %42

42:                                               ; preds = %._crit_edge, %5
  ret void
}